target datalayout = "e-m:e-p270:32:32-p271:32:32-p272:64:64-i64:64-i128:128-f80:128-n8:16:32:64-S128"
target triple = "x86_64-pc-linux-gnu"

; Function Attrs: mustprogress uwtable
define noundef ptr @_Z18coco_string_createPKw(ptr noundef %0) #1 {
  %2 = alloca ptr, align 8
  %3 = alloca ptr, align 8
  %4 = alloca i32, align 4
  store ptr %0, ptr %2, align 8
  store i32 0, ptr %4, align 4
  %5 = load ptr, ptr %2, align 8
  %6 = icmp ne ptr %5, null
  br i1 %6, label %7, label %11

7:                                                ; preds = %1
  %8 = load ptr, ptr %2, align 8
  %9 = call i64 @wcslen(ptr noundef %8) #16
  %10 = trunc i64 %9 to i32
  store i32 %10, ptr %4, align 4
  br label %11

11:                                               ; preds = %7, %1
  %12 = load i32, ptr %4, align 4
  %13 = add nsw i32 %12, 1
  %14 = sext i32 %13 to i64
  %15 = call { i64, i1 } @llvm.umul.with.overflow.i64(i64 %14, i64 4)
  %16 = extractvalue { i64, i1 } %15, 1
  %17 = extractvalue { i64, i1 } %15, 0
  %18 = select i1 %16, i64 -1, i64 %17
  %19 = call noalias noundef nonnull ptr @_Znam(i64 noundef %18) #14
  store ptr %19, ptr %3, align 8
  %20 = load ptr, ptr %3, align 8
  %21 = load ptr, ptr %2, align 8
  %22 = load i32, ptr %4, align 4
  %23 = sext i32 %22 to i64
  %24 = call ptr @wcsncpy(ptr noundef %20, ptr noundef %21, i64 noundef %23) #12
  %25 = load ptr, ptr %3, align 8
  %26 = load i32, ptr %4, align 4
  %27 = sext i32 %26 to i64
  %28 = getelementptr inbounds i32, ptr %25, i64 %27
  store i32 0, ptr %28, align 4
  %29 = load ptr, ptr %3, align 8
  ret ptr %29
}