; Function Attrs: mustprogress uwtable
define noundef nonnull ptr @_Z18coco_string_createPKw(ptr noundef %0) local_unnamed_addr #2 {
  %.not = icmp eq ptr %0, null
  br i1 %.not, label %.thread, label %2

2:                                                ; preds = %1
  %3 = tail call i64 @wcslen(ptr noundef nonnull %0) #24
  %.fr12 = freeze i64 %3
  %4 = trunc i64 %.fr12 to i32
  %5 = shl i64 %.fr12, 32
  %sext = add i64 %5, 4294967296
  %6 = icmp slt i32 %4, -1
  %7 = ashr exact i64 %sext, 30
  %spec.select = select i1 %6, i64 -1, i64 %7
  %8 = ashr exact i64 %5, 32
  br label %.thread

.thread:                                          ; preds = %2, %1
  %.011 = phi i64 [ 0, %1 ], [ %8, %2 ]
  %9 = phi i64 [ 4, %1 ], [ %spec.select, %2 ]
  %10 = tail call noalias noundef nonnull ptr @_Znam(i64 noundef %9) #21
  %11 = tail call ptr @wcsncpy(ptr noundef nonnull %10, ptr noundef %0, i64 noundef %.011) #22
  %12 = getelementptr inbounds i32, ptr %10, i64 %.011
  store i32 0, ptr %12, align 4
  ret ptr %10
}